target datalayout = "e-m:e-p270:32:32-p271:32:32-p272:64:64-i64:64-i128:128-f80:128-n8:16:32:64-S128"
target triple = "x86_64-pc-linux-gnu"

%"struct.Luau::TypePath::Path" = type { %"class.std::vector" }
%"class.std::vector" = type { %"struct.std::_Vector_base" }
%"struct.std::_Vector_base" = type { %"struct.std::_Vector_base<Luau::Variant<Luau::TypePath::Property, Luau::TypePath::Index, Luau::TypePath::TypeField, Luau::TypePath::PackField, Luau::TypePath::Reduction>, std::allocator<Luau::Variant<Luau::TypePath::Property, Luau::TypePath::Index, Luau::TypePath::TypeField, Luau::TypePath::PackField, Luau::TypePath::Reduction>>>::_Vector_impl" }
%"struct.std::_Vector_base<Luau::Variant<Luau::TypePath::Property, Luau::TypePath::Index, Luau::TypePath::TypeField, Luau::TypePath::PackField, Luau::TypePath::Reduction>, std::allocator<Luau::Variant<Luau::TypePath::Property, Luau::TypePath::Index, Luau::TypePath::TypeField, Luau::TypePath::PackField, Luau::TypePath::Reduction>>>::_Vector_impl" = type { %"struct.std::_Vector_base<Luau::Variant<Luau::TypePath::Property, Luau::TypePath::Index, Luau::TypePath::TypeField, Luau::TypePath::PackField, Luau::TypePath::Reduction>, std::allocator<Luau::Variant<Luau::TypePath::Property, Luau::TypePath::Index, Luau::TypePath::TypeField, Luau::TypePath::PackField, Luau::TypePath::Reduction>>>::_Vector_impl_data" }
%"struct.std::_Vector_base<Luau::Variant<Luau::TypePath::Property, Luau::TypePath::Index, Luau::TypePath::TypeField, Luau::TypePath::PackField, Luau::TypePath::Reduction>, std::allocator<Luau::Variant<Luau::TypePath::Property, Luau::TypePath::Index, Luau::TypePath::TypeField, Luau::TypePath::PackField, Luau::TypePath::Reduction>>>::_Vector_impl_data" = type { ptr, ptr, ptr }
%"struct.Luau::SubtypingReasoning" = type <{ %"struct.Luau::TypePath::Path", %"struct.Luau::TypePath::Path", i32, [4 x i8] }>
%"class.Luau::DenseHashSet" = type { %"class.Luau::detail::DenseHashTable" }
%"class.Luau::detail::DenseHashTable" = type <{ ptr, i64, i64, %"struct.Luau::SubtypingReasoning", [8 x i8] }>
%"struct.Luau::SubtypingResult" = type { i8, i8, i8, %"class.std::vector.0", %"class.Luau::DenseHashSet" }
%"class.std::vector.0" = type { %"struct.std::_Vector_base.1" }
%"struct.std::_Vector_base.1" = type { %"struct.std::_Vector_base<Luau::TypeError, std::allocator<Luau::TypeError>>::_Vector_impl" }
%"struct.std::_Vector_base<Luau::TypeError, std::allocator<Luau::TypeError>>::_Vector_impl" = type { %"struct.std::_Vector_base<Luau::TypeError, std::allocator<Luau::TypeError>>::_Vector_impl_data" }
%"struct.std::_Vector_base<Luau::TypeError, std::allocator<Luau::TypeError>>::_Vector_impl_data" = type { ptr, ptr, ptr }
%"struct.Luau::NotNull.88" = type { ptr }
%"struct.Luau::SingletonType" = type { %"class.Luau::Variant.354" }
%"class.Luau::Variant.354" = type { i32, [4 x i8], [32 x i8] }

@_ZN4LuauL15kEmptyReasoningE = internal global %"struct.Luau::SubtypingReasoning" zeroinitializer, align 8

; Function Attrs: mustprogress nounwind uwtable
define linkonce_odr dso_local void @_ZNSt15__new_allocatorIN4Luau9TypeErrorEEC2Ev(ptr noundef nonnull align 1 dereferenceable(1) %0) unnamed_addr #2 comdat align 2 {
  %2 = alloca ptr, align 8
  store ptr %0, ptr %2, align 8, !tbaa !716
  ret void
}

; Function Attrs: inlinehint mustprogress uwtable
define linkonce_odr dso_local void @_ZN4Luau8TypePath4PathC2ERKS1_(ptr noundef nonnull align 8 dereferenceable(24) %0, ptr noundef nonnull align 8 dereferenceable(24) %1) unnamed_addr #5 comdat align 2 {
  %3 = alloca ptr, align 8
  %4 = alloca ptr, align 8
  store ptr %0, ptr %3, align 8, !tbaa !8
  store ptr %1, ptr %4, align 8, !tbaa !8
  %5 = load ptr, ptr %3, align 8
  %6 = getelementptr inbounds nuw %"struct.Luau::TypePath::Path", ptr %5, i32 0, i32 0
  %7 = load ptr, ptr %4, align 8, !tbaa !8
  %8 = getelementptr inbounds nuw %"struct.Luau::TypePath::Path", ptr %7, i32 0, i32 0
  call void @_ZNSt6vectorIN4Luau7VariantIJNS0_8TypePath8PropertyENS2_5IndexENS2_9TypeFieldENS2_9PackFieldENS2_9ReductionEEEESaIS8_EEC2ERKSA_(ptr noundef nonnull align 8 dereferenceable(24) %6, ptr noundef nonnull align 8 dereferenceable(24) %8)
  ret void
}

; Function Attrs: mustprogress nounwind uwtable
define linkonce_odr dso_local void @_ZNSt12_Vector_baseIN4Luau9TypeErrorESaIS1_EE17_Vector_impl_dataC2Ev(ptr noundef nonnull align 8 dereferenceable(24) %0) unnamed_addr #2 comdat align 2 {
  %2 = alloca ptr, align 8
  store ptr %0, ptr %2, align 8, !tbaa !1356
  %3 = load ptr, ptr %2, align 8
  %4 = getelementptr inbounds nuw %"struct.std::_Vector_base<Luau::TypeError, std::allocator<Luau::TypeError>>::_Vector_impl_data", ptr %3, i32 0, i32 0
  store ptr null, ptr %4, align 8, !tbaa !87
  %5 = getelementptr inbounds nuw %"struct.std::_Vector_base<Luau::TypeError, std::allocator<Luau::TypeError>>::_Vector_impl_data", ptr %3, i32 0, i32 1
  store ptr null, ptr %5, align 8, !tbaa !85
  %6 = getelementptr inbounds nuw %"struct.std::_Vector_base<Luau::TypeError, std::allocator<Luau::TypeError>>::_Vector_impl_data", ptr %3, i32 0, i32 2
  store ptr null, ptr %6, align 8, !tbaa !86
  ret void
}

; Function Attrs: mustprogress nounwind uwtable
define linkonce_odr dso_local void @_ZNSaIN4Luau9TypeErrorEEC2Ev(ptr noundef nonnull align 1 dereferenceable(1) %0) unnamed_addr #2 comdat align 2 {
  %2 = alloca ptr, align 8
  store ptr %0, ptr %2, align 8, !tbaa !714
  %3 = load ptr, ptr %2, align 8
  call void @_ZNSt15__new_allocatorIN4Luau9TypeErrorEEC2Ev(ptr noundef nonnull align 1 dereferenceable(1) %3) #4
  ret void
}

; Function Attrs: inlinehint mustprogress nounwind uwtable
define linkonce_odr dso_local void @_ZN4Luau18SubtypingReasoningD2Ev(ptr noundef nonnull align 8 dereferenceable(52) %0) unnamed_addr #3 comdat align 2 {
  %2 = alloca ptr, align 8
  store ptr %0, ptr %2, align 8, !tbaa !20
  %3 = load ptr, ptr %2, align 8
  %4 = getelementptr inbounds nuw %"struct.Luau::SubtypingReasoning", ptr %3, i32 0, i32 1
  call void @_ZN4Luau8TypePath4PathD2Ev(ptr noundef nonnull align 8 dereferenceable(24) %4) #4
  %5 = getelementptr inbounds nuw %"struct.Luau::SubtypingReasoning", ptr %3, i32 0, i32 0
  call void @_ZN4Luau8TypePath4PathD2Ev(ptr noundef nonnull align 8 dereferenceable(24) %5) #4
  ret void
}

; Function Attrs: mustprogress uwtable
define linkonce_odr dso_local void @_ZN4Luau6detail16ItemInterfaceSetINS_18SubtypingReasoningEE4fillEPS2_mRKS2_(ptr noundef %0, i64 noundef %1, ptr noundef nonnull align 8 dereferenceable(52) %2) #6 comdat align 2 {
  %4 = alloca ptr, align 8
  %5 = alloca i64, align 8
  %6 = alloca ptr, align 8
  %7 = alloca i64, align 8
  store ptr %0, ptr %4, align 8, !tbaa !20
  store i64 %1, ptr %5, align 8, !tbaa !57
  store ptr %2, ptr %6, align 8, !tbaa !20
  call void @llvm.lifetime.start.p0(i64 8, ptr %7) #4
  store i64 0, ptr %7, align 8, !tbaa !57
  br label %8

8:                                                ; preds = %18, %3
  %9 = load i64, ptr %7, align 8, !tbaa !57
  %10 = load i64, ptr %5, align 8, !tbaa !57
  %11 = icmp ult i64 %9, %10
  br i1 %11, label %13, label %12

12:                                               ; preds = %8
  call void @llvm.lifetime.end.p0(i64 8, ptr %7) #4
  br label %21

13:                                               ; preds = %8
  %14 = load ptr, ptr %4, align 8, !tbaa !20
  %15 = load i64, ptr %7, align 8, !tbaa !57
  %16 = getelementptr inbounds nuw %"struct.Luau::SubtypingReasoning", ptr %14, i64 %15
  %17 = load ptr, ptr %6, align 8, !tbaa !20
  call void @_ZN4Luau18SubtypingReasoningC2ERKS0_(ptr noundef nonnull align 8 dereferenceable(52) %16, ptr noundef nonnull align 8 dereferenceable(52) %17)
  br label %18

18:                                               ; preds = %13
  %19 = load i64, ptr %7, align 8, !tbaa !57
  %20 = add i64 %19, 1
  store i64 %20, ptr %7, align 8, !tbaa !57
  br label %8, !llvm.loop !1491

21:                                               ; preds = %12
  ret void
}

; Function Attrs: inlinehint mustprogress uwtable
define linkonce_odr dso_local void @_ZN4Luau18SubtypingReasoningC2ERKS0_(ptr noundef nonnull align 8 dereferenceable(52) %0, ptr noundef nonnull align 8 dereferenceable(52) %1) unnamed_addr #5 comdat align 2 personality ptr @__gxx_personality_v0 {
  %3 = alloca ptr, align 8
  %4 = alloca ptr, align 8
  %5 = alloca ptr, align 8
  %6 = alloca i32, align 4
  store ptr %0, ptr %3, align 8, !tbaa !20
  store ptr %1, ptr %4, align 8, !tbaa !20
  %7 = load ptr, ptr %3, align 8
  %8 = getelementptr inbounds nuw %"struct.Luau::SubtypingReasoning", ptr %7, i32 0, i32 0
  %9 = load ptr, ptr %4, align 8, !tbaa !20
  %10 = getelementptr inbounds nuw %"struct.Luau::SubtypingReasoning", ptr %9, i32 0, i32 0
  call void @_ZN4Luau8TypePath4PathC2ERKS1_(ptr noundef nonnull align 8 dereferenceable(24) %8, ptr noundef nonnull align 8 dereferenceable(24) %10)
  %11 = getelementptr inbounds nuw %"struct.Luau::SubtypingReasoning", ptr %7, i32 0, i32 1
  %12 = load ptr, ptr %4, align 8, !tbaa !20
  %13 = getelementptr inbounds nuw %"struct.Luau::SubtypingReasoning", ptr %12, i32 0, i32 1
  invoke void @_ZN4Luau8TypePath4PathC2ERKS1_(ptr noundef nonnull align 8 dereferenceable(24) %11, ptr noundef nonnull align 8 dereferenceable(24) %13)
          to label %14 unwind label %19

14:                                               ; preds = %2
  %15 = getelementptr inbounds nuw %"struct.Luau::SubtypingReasoning", ptr %7, i32 0, i32 2
  %16 = load ptr, ptr %4, align 8, !tbaa !20
  %17 = getelementptr inbounds nuw %"struct.Luau::SubtypingReasoning", ptr %16, i32 0, i32 2
  %18 = load i32, ptr %17, align 8, !tbaa !11
  store i32 %18, ptr %15, align 8, !tbaa !11
  ret void

19:                                               ; preds = %2
  %20 = landingpad { ptr, i32 }
          cleanup
  %21 = extractvalue { ptr, i32 } %20, 0
  store ptr %21, ptr %5, align 8
  %22 = extractvalue { ptr, i32 } %20, 1
  store i32 %22, ptr %6, align 4
  call void @_ZN4Luau8TypePath4PathD2Ev(ptr noundef nonnull align 8 dereferenceable(24) %8) #4
  br label %23

23:                                               ; preds = %19
  %24 = load ptr, ptr %5, align 8
  %25 = load i32, ptr %6, align 4
  %26 = insertvalue { ptr, i32 } poison, ptr %24, 0
  %27 = insertvalue { ptr, i32 } %26, i32 %25, 1
  resume { ptr, i32 } %27
}

; Function Attrs: mustprogress nounwind uwtable
define linkonce_odr dso_local void @_ZNSt12_Vector_baseIN4Luau9TypeErrorESaIS1_EE12_Vector_implC2Ev(ptr noundef nonnull align 8 dereferenceable(24) %0) unnamed_addr #2 comdat align 2 {
  %2 = alloca ptr, align 8
  store ptr %0, ptr %2, align 8, !tbaa !712
  %3 = load ptr, ptr %2, align 8
  call void @_ZNSaIN4Luau9TypeErrorEEC2Ev(ptr noundef nonnull align 1 dereferenceable(1) %3) #4
  call void @_ZNSt12_Vector_baseIN4Luau9TypeErrorESaIS1_EE17_Vector_impl_dataC2Ev(ptr noundef nonnull align 8 dereferenceable(24) %3) #4
  ret void
}

; Function Attrs: mustprogress uwtable
define linkonce_odr dso_local void @_ZN4Luau6detail14DenseHashTableINS_18SubtypingReasoningES2_S2_NS0_16ItemInterfaceSetIS2_EENS_22SubtypingReasoningHashESt8equal_toIS2_EEC2ERKS2_m(ptr noundef nonnull align 8 dereferenceable(82) %0, ptr noundef nonnull align 8 dereferenceable(52) %1, i64 noundef %2) unnamed_addr #6 comdat align 2 personality ptr @__gxx_personality_v0 {
  %4 = alloca ptr, align 8
  %5 = alloca ptr, align 8
  %6 = alloca i64, align 8
  %7 = alloca ptr, align 8
  %8 = alloca i32, align 4
  store ptr %0, ptr %4, align 8, !tbaa !673
  store ptr %1, ptr %5, align 8, !tbaa !20
  store i64 %2, ptr %6, align 8, !tbaa !57
  %9 = load ptr, ptr %4, align 8
  %10 = getelementptr inbounds nuw %"class.Luau::detail::DenseHashTable", ptr %9, i32 0, i32 0
  store ptr null, ptr %10, align 8, !tbaa !79
  %11 = getelementptr inbounds nuw %"class.Luau::detail::DenseHashTable", ptr %9, i32 0, i32 1
  store i64 0, ptr %11, align 8, !tbaa !80
  %12 = getelementptr inbounds nuw %"class.Luau::detail::DenseHashTable", ptr %9, i32 0, i32 2
  store i64 0, ptr %12, align 8, !tbaa !674
  %13 = getelementptr inbounds nuw %"class.Luau::detail::DenseHashTable", ptr %9, i32 0, i32 3
  %14 = load ptr, ptr %5, align 8, !tbaa !20
  call void @_ZN4Luau18SubtypingReasoningC2ERKS0_(ptr noundef nonnull align 8 dereferenceable(52) %13, ptr noundef nonnull align 8 dereferenceable(52) %14)
  %15 = load i64, ptr %6, align 8, !tbaa !57
  %16 = icmp ne i64 %15, 0
  br i1 %16, label %17, label %34

17:                                               ; preds = %3
  %18 = load i64, ptr %6, align 8, !tbaa !57
  %19 = mul i64 56, %18
  %20 = invoke noalias noundef nonnull ptr @_Znwm(i64 noundef %19) #26
          to label %21 unwind label %30

21:                                               ; preds = %17
  %22 = getelementptr inbounds nuw %"class.Luau::detail::DenseHashTable", ptr %9, i32 0, i32 0
  store ptr %20, ptr %22, align 8, !tbaa !79
  %23 = load i64, ptr %6, align 8, !tbaa !57
  %24 = getelementptr inbounds nuw %"class.Luau::detail::DenseHashTable", ptr %9, i32 0, i32 1
  store i64 %23, ptr %24, align 8, !tbaa !80
  %25 = getelementptr inbounds nuw %"class.Luau::detail::DenseHashTable", ptr %9, i32 0, i32 0
  %26 = load ptr, ptr %25, align 8, !tbaa !79
  %27 = load i64, ptr %6, align 8, !tbaa !57
  %28 = load ptr, ptr %5, align 8, !tbaa !20
  invoke void @_ZN4Luau6detail16ItemInterfaceSetINS_18SubtypingReasoningEE4fillEPS2_mRKS2_(ptr noundef %26, i64 noundef %27, ptr noundef nonnull align 8 dereferenceable(52) %28)
          to label %29 unwind label %30

29:                                               ; preds = %21
  br label %34

30:                                               ; preds = %21, %17
  %31 = landingpad { ptr, i32 }
          cleanup
  %32 = extractvalue { ptr, i32 } %31, 0
  store ptr %32, ptr %7, align 8
  %33 = extractvalue { ptr, i32 } %31, 1
  store i32 %33, ptr %8, align 4
  call void @_ZN4Luau18SubtypingReasoningD2Ev(ptr noundef nonnull align 8 dereferenceable(52) %13) #4
  br label %35

34:                                               ; preds = %29, %3
  ret void

35:                                               ; preds = %30
  %36 = load ptr, ptr %7, align 8
  %37 = load i32, ptr %8, align 4
  %38 = insertvalue { ptr, i32 } poison, ptr %36, 0
  %39 = insertvalue { ptr, i32 } %38, i32 %37, 1
  resume { ptr, i32 } %39
}

; Function Attrs: mustprogress nounwind uwtable
define linkonce_odr dso_local void @_ZNSt12_Vector_baseIN4Luau9TypeErrorESaIS1_EEC2Ev(ptr noundef nonnull align 8 dereferenceable(24) %0) unnamed_addr #2 comdat align 2 {
  %2 = alloca ptr, align 8
  store ptr %0, ptr %2, align 8, !tbaa !710
  %3 = load ptr, ptr %2, align 8
  %4 = getelementptr inbounds nuw %"struct.std::_Vector_base.1", ptr %3, i32 0, i32 0
  call void @_ZNSt12_Vector_baseIN4Luau9TypeErrorESaIS1_EE12_Vector_implC2Ev(ptr noundef nonnull align 8 dereferenceable(24) %4) #4
  ret void
}

; Function Attrs: mustprogress uwtable
define linkonce_odr dso_local noundef zeroext i1 @_ZNK4Luau7VariantIJNS_16BooleanSingletonENS_15StringSingletonEEEeqERKS3_(ptr noundef nonnull align 8 dereferenceable(40) %0, ptr noundef nonnull align 8 dereferenceable(40) %1) #6 comdat align 2 {
  %3 = alloca ptr, align 8
  %4 = alloca ptr, align 8
  store ptr %0, ptr %3, align 8, !tbaa !779
  store ptr %1, ptr %4, align 8, !tbaa !779
  %5 = load ptr, ptr %3, align 8
  %6 = getelementptr inbounds nuw %"class.Luau::Variant.354", ptr %5, i32 0, i32 0
  %7 = load i32, ptr %6, align 8, !tbaa !781
  %8 = load ptr, ptr %4, align 8, !tbaa !779
  %9 = getelementptr inbounds nuw %"class.Luau::Variant.354", ptr %8, i32 0, i32 0
  %10 = load i32, ptr %9, align 8, !tbaa !781
  %11 = icmp eq i32 %7, %10
  br i1 %11, label %12, label %22

12:                                               ; preds = %2
  %13 = getelementptr inbounds nuw %"class.Luau::Variant.354", ptr %5, i32 0, i32 0
  %14 = load i32, ptr %13, align 8, !tbaa !781
  %15 = sext i32 %14 to i64
  %16 = getelementptr inbounds [2 x ptr], ptr @_ZZNK4Luau7VariantIJNS_16BooleanSingletonENS_15StringSingletonEEEeqERKS3_E5table, i64 0, i64 %15
  %17 = load ptr, ptr %16, align 8, !tbaa !69
  %18 = getelementptr inbounds nuw %"class.Luau::Variant.354", ptr %5, i32 0, i32 2
  %19 = load ptr, ptr %4, align 8, !tbaa !779
  %20 = getelementptr inbounds nuw %"class.Luau::Variant.354", ptr %19, i32 0, i32 2
  %21 = call noundef zeroext i1 %17(ptr noundef %18, ptr noundef %20)
  br label %22

22:                                               ; preds = %12, %2
  %23 = phi i1 [ false, %2 ], [ %21, %12 ]
  ret i1 %23
}

; Function Attrs: mustprogress uwtable
define linkonce_odr dso_local void @_ZN4Luau12DenseHashSetINS_18SubtypingReasoningENS_22SubtypingReasoningHashESt8equal_toIS1_EEC2ERKS1_m(ptr noundef nonnull align 8 dereferenceable(88) %0, ptr noundef nonnull align 8 dereferenceable(52) %1, i64 noundef %2) unnamed_addr #6 comdat align 2 {
  %4 = alloca ptr, align 8
  %5 = alloca ptr, align 8
  %6 = alloca i64, align 8
  store ptr %0, ptr %4, align 8, !tbaa !53
  store ptr %1, ptr %5, align 8, !tbaa !20
  store i64 %2, ptr %6, align 8, !tbaa !57
  %7 = load ptr, ptr %4, align 8
  %8 = getelementptr inbounds nuw %"class.Luau::DenseHashSet", ptr %7, i32 0, i32 0
  %9 = load ptr, ptr %5, align 8, !tbaa !20
  %10 = load i64, ptr %6, align 8, !tbaa !57
  call void @_ZN4Luau6detail14DenseHashTableINS_18SubtypingReasoningES2_S2_NS0_16ItemInterfaceSetIS2_EENS_22SubtypingReasoningHashESt8equal_toIS2_EEC2ERKS2_m(ptr noundef nonnull align 8 dereferenceable(82) %8, ptr noundef nonnull align 8 dereferenceable(52) %9, i64 noundef %10)
  ret void
}

; Function Attrs: mustprogress nounwind uwtable
define linkonce_odr dso_local void @_ZNSt6vectorIN4Luau9TypeErrorESaIS1_EEC2Ev(ptr noundef nonnull align 8 dereferenceable(24) %0) unnamed_addr #2 comdat align 2 {
  %2 = alloca ptr, align 8
  store ptr %0, ptr %2, align 8, !tbaa !55
  %3 = load ptr, ptr %2, align 8
  call void @_ZNSt12_Vector_baseIN4Luau9TypeErrorESaIS1_EEC2Ev(ptr noundef nonnull align 8 dereferenceable(24) %3) #4
  ret void
}

; Function Attrs: mustprogress uwtable
define linkonce_odr dso_local noundef zeroext i1 @_ZNK4Luau13SingletonTypeeqERKS0_(ptr noundef nonnull align 8 dereferenceable(40) %0, ptr noundef nonnull align 8 dereferenceable(40) %1) #6 comdat align 2 {
  %3 = alloca ptr, align 8
  %4 = alloca ptr, align 8
  store ptr %0, ptr %3, align 8, !tbaa !394
  store ptr %1, ptr %4, align 8, !tbaa !394
  %5 = load ptr, ptr %3, align 8
  %6 = getelementptr inbounds nuw %"struct.Luau::SingletonType", ptr %5, i32 0, i32 0
  %7 = load ptr, ptr %4, align 8, !tbaa !394
  %8 = getelementptr inbounds nuw %"struct.Luau::SingletonType", ptr %7, i32 0, i32 0
  %9 = call noundef zeroext i1 @_ZNK4Luau7VariantIJNS_16BooleanSingletonENS_15StringSingletonEEEeqERKS3_(ptr noundef nonnull align 8 dereferenceable(40) %6, ptr noundef nonnull align 8 dereferenceable(40) %8)
  ret i1 %9
}

; Function Attrs: mustprogress uwtable
define dso_local void @_ZN4Luau9Subtyping15isCovariantWithERNS_20SubtypingEnvironmentEPKNS_13SingletonTypeES5_NS_7NotNullINS_5ScopeEEE(ptr dead_on_unwind noalias writable sret(%"struct.Luau::SubtypingResult") align 8 %0, ptr noundef nonnull align 8 dereferenceable(208) %1, ptr noundef nonnull align 8 dereferenceable(176) %2, ptr noundef %3, ptr noundef %4, ptr %5) #6 align 2 personality ptr @__gxx_personality_v0 {
  %7 = alloca ptr, align 8
  %8 = alloca %"struct.Luau::NotNull.88", align 8
  %9 = alloca ptr, align 8
  %10 = alloca ptr, align 8
  %11 = alloca ptr, align 8
  %12 = alloca ptr, align 8
  %13 = alloca ptr, align 8
  %14 = alloca i32, align 4
  store ptr %0, ptr %7, align 8
  %15 = getelementptr inbounds nuw %"struct.Luau::NotNull.88", ptr %8, i32 0, i32 0
  store ptr %5, ptr %15, align 8
  store ptr %1, ptr %9, align 8, !tbaa !151
  store ptr %2, ptr %10, align 8, !tbaa !94
  store ptr %3, ptr %11, align 8, !tbaa !394
  store ptr %4, ptr %12, align 8, !tbaa !394
  %16 = getelementptr inbounds nuw %"struct.Luau::SubtypingResult", ptr %0, i32 0, i32 0
  %17 = load ptr, ptr %11, align 8, !tbaa !394
  %18 = load ptr, ptr %12, align 8, !tbaa !394
  %19 = call noundef zeroext i1 @_ZNK4Luau13SingletonTypeeqERKS0_(ptr noundef nonnull align 8 dereferenceable(40) %17, ptr noundef nonnull align 8 dereferenceable(40) %18)
  %20 = zext i1 %19 to i8
  store i8 %20, ptr %16, align 8, !tbaa !39
  %21 = getelementptr inbounds nuw %"struct.Luau::SubtypingResult", ptr %0, i32 0, i32 1
  store i8 0, ptr %21, align 1, !tbaa !51
  %22 = getelementptr inbounds nuw %"struct.Luau::SubtypingResult", ptr %0, i32 0, i32 2
  store i8 1, ptr %22, align 2, !tbaa !52
  %23 = getelementptr inbounds nuw %"struct.Luau::SubtypingResult", ptr %0, i32 0, i32 3
  call void @llvm.memset.p0.i64(ptr align 8 %23, i8 0, i64 24, i1 false)
  call void @_ZNSt6vectorIN4Luau9TypeErrorESaIS1_EEC2Ev(ptr noundef nonnull align 8 dereferenceable(24) %23) #4
  %24 = getelementptr inbounds nuw %"struct.Luau::SubtypingResult", ptr %0, i32 0, i32 4
  invoke void @_ZN4Luau12DenseHashSetINS_18SubtypingReasoningENS_22SubtypingReasoningHashESt8equal_toIS1_EEC2ERKS1_m(ptr noundef nonnull align 8 dereferenceable(88) %24, ptr noundef nonnull align 8 dereferenceable(52) @_ZN4LuauL15kEmptyReasoningE, i64 noundef 0)
          to label %25 unwind label %26

25:                                               ; preds = %6
  ret void

26:                                               ; preds = %6
  %27 = landingpad { ptr, i32 }
          cleanup
  %28 = extractvalue { ptr, i32 } %27, 0
  store ptr %28, ptr %13, align 8
  %29 = extractvalue { ptr, i32 } %27, 1
  store i32 %29, ptr %14, align 4
  call void @_ZNSt6vectorIN4Luau9TypeErrorESaIS1_EED2Ev(ptr noundef nonnull align 8 dereferenceable(24) %23) #4
  br label %30

30:                                               ; preds = %26
  %31 = load ptr, ptr %13, align 8
  %32 = load i32, ptr %14, align 4
  %33 = insertvalue { ptr, i32 } poison, ptr %31, 0
  %34 = insertvalue { ptr, i32 } %33, i32 %32, 1
  resume { ptr, i32 } %34
}