; Function Attrs: mustprogress uwtable
define dso_local void @_ZN4Luau9Subtyping15isCovariantWithERNS_20SubtypingEnvironmentEPKNS_13SingletonTypeES5_NS_7NotNullINS_5ScopeEEE(ptr dead_on_unwind noalias writable sret(%"struct.Luau::SubtypingResult") align 8 initializes((0, 3), (8, 56)) %0, ptr noundef nonnull readnone align 8 captures(none) dereferenceable(208) %1, ptr noundef nonnull readnone align 8 captures(none) dereferenceable(176) %2, ptr noundef %3, ptr noundef %4, ptr readnone captures(none) %5) local_unnamed_addr #4 align 2 personality ptr @__gxx_personality_v0 {
  %7 = load i32, ptr %3, align 8, !tbaa !311
  %8 = load i32, ptr %4, align 8, !tbaa !311
  %9 = icmp eq i32 %7, %8
  br i1 %9, label %10, label %_ZNK4Luau13SingletonTypeeqERKS0_.exit

10:                                               ; preds = %6
  %11 = sext i32 %7 to i64
  %12 = getelementptr inbounds [2 x ptr], ptr @_ZZNK4Luau7VariantIJNS_16BooleanSingletonENS_15StringSingletonEEEeqERKS3_E5table, i64 0, i64 %11
  %13 = load ptr, ptr %12, align 8, !tbaa !15
  %14 = getelementptr inbounds nuw i8, ptr %3, i64 8
  %15 = getelementptr inbounds nuw i8, ptr %4, i64 8
  %16 = tail call noundef zeroext i1 %13(ptr noundef nonnull %14, ptr noundef nonnull %15)
  %17 = zext i1 %16 to i8
  br label %_ZNK4Luau13SingletonTypeeqERKS0_.exit

_ZNK4Luau13SingletonTypeeqERKS0_.exit:            ; preds = %6, %10
  %18 = phi i8 [ 0, %6 ], [ %17, %10 ]
  store i8 %18, ptr %0, align 8, !tbaa !26
  %19 = getelementptr inbounds nuw i8, ptr %0, i64 1
  store i8 0, ptr %19, align 1, !tbaa !42
  %20 = getelementptr inbounds nuw i8, ptr %0, i64 2
  store i8 1, ptr %20, align 2, !tbaa !43
  %21 = getelementptr inbounds nuw i8, ptr %0, i64 8
  %22 = getelementptr inbounds nuw i8, ptr %0, i64 56
  tail call void @llvm.memset.p0.i64(ptr noundef nonnull align 8 dereferenceable(48) %21, i8 0, i64 48, i1 false)
  invoke void @_ZNSt6vectorIN4Luau7VariantIJNS0_8TypePath8PropertyENS2_5IndexENS2_9TypeFieldENS2_9PackFieldENS2_9ReductionEEEESaIS8_EEC2ERKSA_(ptr noundef nonnull align 8 dereferenceable(52) %22, ptr noundef nonnull align 8 dereferenceable(52) @_ZN4LuauL15kEmptyReasoningE)
          to label %.noexc unwind label %29

.noexc:                                           ; preds = %_ZNK4Luau13SingletonTypeeqERKS0_.exit
  %23 = getelementptr inbounds nuw i8, ptr %0, i64 80
  invoke void @_ZNSt6vectorIN4Luau7VariantIJNS0_8TypePath8PropertyENS2_5IndexENS2_9TypeFieldENS2_9PackFieldENS2_9ReductionEEEESaIS8_EEC2ERKSA_(ptr noundef nonnull align 8 dereferenceable(24) %23, ptr noundef nonnull align 8 dereferenceable(24) getelementptr inbounds nuw (i8, ptr @_ZN4LuauL15kEmptyReasoningE, i64 24))
          to label %26 unwind label %24

24:                                               ; preds = %.noexc
  %25 = landingpad { ptr, i32 }
          cleanup
  tail call void @_ZN4Luau8TypePath4PathD2Ev(ptr noundef nonnull align 8 dereferenceable(52) %22) #29
  br label %.body

26:                                               ; preds = %.noexc
  %27 = getelementptr inbounds nuw i8, ptr %0, i64 104
  %28 = load i32, ptr getelementptr inbounds nuw (i8, ptr @_ZN4LuauL15kEmptyReasoningE, i64 48), align 8, !tbaa !19
  store i32 %28, ptr %27, align 8, !tbaa !19
  ret void

29:                                               ; preds = %_ZNK4Luau13SingletonTypeeqERKS0_.exit
  %30 = landingpad { ptr, i32 }
          cleanup
  br label %.body

.body:                                            ; preds = %24, %29
  %eh.lpad-body = phi { ptr, i32 } [ %30, %29 ], [ %25, %24 ]
  tail call void @_ZNSt6vectorIN4Luau9TypeErrorESaIS1_EED2Ev(ptr noundef nonnull align 8 dereferenceable(24) %21) #29
  resume { ptr, i32 } %eh.lpad-body
}